target datalayout = "e-m:e-p270:32:32-p271:32:32-p272:64:64-i64:64-i128:128-f80:128-n8:16:32:64-S128"
target triple = "x86_64-pc-linux-gnu"

%struct.stbtt_fontinfo = type { ptr, ptr, i32, i32, i32, i32, i32, i32, i32, i32, i32, i32 }
%struct.stbtt__bitmap = type { i32, i32, i32, ptr }

; Function Attrs: mustprogress nounwind uwtable
define linkonce_odr dso_local noundef float @_ZSt4ceilf(float noundef %0) #1 comdat {
  %2 = alloca float, align 4
  store float %0, ptr %2, align 4
  %3 = load float, ptr %2, align 4
  %4 = call float @llvm.ceil.f32(float %3)
  ret float %4
}

; Function Attrs: mustprogress nounwind uwtable
define linkonce_odr dso_local noundef float @_ZSt5floorf(float noundef %0) #1 comdat {
  %2 = alloca float, align 4
  store float %0, ptr %2, align 4
  %3 = load float, ptr %2, align 4
  %4 = call float @llvm.floor.f32(float %3)
  ret float %4
}

; Function Attrs: mustprogress nounwind uwtable
define dso_local noundef ptr @_Z11imguimallocmPv(i64 noundef %0, ptr noundef %1) #1 {
  %3 = alloca i64, align 8
  %4 = alloca ptr, align 8
  store i64 %0, ptr %3, align 8
  store ptr %1, ptr %4, align 8
  %5 = load i64, ptr %3, align 8
  %6 = call noalias ptr @malloc(i64 noundef %5) #9
  ret ptr %6
}

; Function Attrs: mustprogress uwtable
define dso_local void @stbtt_GetGlyphBitmapBoxSubpixel(ptr noundef %0, i32 noundef %1, float noundef %2, float noundef %3, float noundef %4, float noundef %5, ptr noundef %6, ptr noundef %7, ptr noundef %8, ptr noundef %9) #0 {
  %11 = alloca ptr, align 8
  %12 = alloca i32, align 4
  %13 = alloca float, align 4
  %14 = alloca float, align 4
  %15 = alloca float, align 4
  %16 = alloca float, align 4
  %17 = alloca ptr, align 8
  %18 = alloca ptr, align 8
  %19 = alloca ptr, align 8
  %20 = alloca ptr, align 8
  %21 = alloca i32, align 4
  %22 = alloca i32, align 4
  %23 = alloca i32, align 4
  %24 = alloca i32, align 4
  store ptr %0, ptr %11, align 8
  store i32 %1, ptr %12, align 4
  store float %2, ptr %13, align 4
  store float %3, ptr %14, align 4
  store float %4, ptr %15, align 4
  store float %5, ptr %16, align 4
  store ptr %6, ptr %17, align 8
  store ptr %7, ptr %18, align 8
  store ptr %8, ptr %19, align 8
  store ptr %9, ptr %20, align 8
  store i32 0, ptr %21, align 4
  store i32 0, ptr %22, align 4
  %25 = load ptr, ptr %11, align 8
  %26 = load i32, ptr %12, align 4
  %27 = call i32 @stbtt_GetGlyphBox(ptr noundef %25, i32 noundef %26, ptr noundef %21, ptr noundef %22, ptr noundef %23, ptr noundef %24)
  %28 = icmp ne i32 %27, 0
  br i1 %28, label %50, label %29

29:                                               ; preds = %10
  %30 = load ptr, ptr %17, align 8
  %31 = icmp ne ptr %30, null
  br i1 %31, label %32, label %34

32:                                               ; preds = %29
  %33 = load ptr, ptr %17, align 8
  store i32 0, ptr %33, align 4
  br label %34

34:                                               ; preds = %32, %29
  %35 = load ptr, ptr %18, align 8
  %36 = icmp ne ptr %35, null
  br i1 %36, label %37, label %39

37:                                               ; preds = %34
  %38 = load ptr, ptr %18, align 8
  store i32 0, ptr %38, align 4
  br label %39

39:                                               ; preds = %37, %34
  %40 = load ptr, ptr %19, align 8
  %41 = icmp ne ptr %40, null
  br i1 %41, label %42, label %44

42:                                               ; preds = %39
  %43 = load ptr, ptr %19, align 8
  store i32 0, ptr %43, align 4
  br label %44

44:                                               ; preds = %42, %39
  %45 = load ptr, ptr %20, align 8
  %46 = icmp ne ptr %45, null
  br i1 %46, label %47, label %49

47:                                               ; preds = %44
  %48 = load ptr, ptr %20, align 8
  store i32 0, ptr %48, align 4
  br label %49

49:                                               ; preds = %47, %44
  br label %101

50:                                               ; preds = %10
  %51 = load ptr, ptr %17, align 8
  %52 = icmp ne ptr %51, null
  br i1 %52, label %53, label %62

53:                                               ; preds = %50
  %54 = load i32, ptr %21, align 4
  %55 = sitofp i32 %54 to float
  %56 = load float, ptr %13, align 4
  %57 = load float, ptr %15, align 4
  %58 = call float @llvm.fmuladd.f32(float %55, float %56, float %57)
  %59 = call noundef float @_ZSt5floorf(float noundef %58)
  %60 = fptosi float %59 to i32
  %61 = load ptr, ptr %17, align 8
  store i32 %60, ptr %61, align 4
  br label %62

62:                                               ; preds = %53, %50
  %63 = load ptr, ptr %18, align 8
  %64 = icmp ne ptr %63, null
  br i1 %64, label %65, label %75

65:                                               ; preds = %62
  %66 = load i32, ptr %24, align 4
  %67 = sub nsw i32 0, %66
  %68 = sitofp i32 %67 to float
  %69 = load float, ptr %14, align 4
  %70 = load float, ptr %16, align 4
  %71 = call float @llvm.fmuladd.f32(float %68, float %69, float %70)
  %72 = call noundef float @_ZSt5floorf(float noundef %71)
  %73 = fptosi float %72 to i32
  %74 = load ptr, ptr %18, align 8
  store i32 %73, ptr %74, align 4
  br label %75

75:                                               ; preds = %65, %62
  %76 = load ptr, ptr %19, align 8
  %77 = icmp ne ptr %76, null
  br i1 %77, label %78, label %87

78:                                               ; preds = %75
  %79 = load i32, ptr %23, align 4
  %80 = sitofp i32 %79 to float
  %81 = load float, ptr %13, align 4
  %82 = load float, ptr %15, align 4
  %83 = call float @llvm.fmuladd.f32(float %80, float %81, float %82)
  %84 = call noundef float @_ZSt4ceilf(float noundef %83)
  %85 = fptosi float %84 to i32
  %86 = load ptr, ptr %19, align 8
  store i32 %85, ptr %86, align 4
  br label %87

87:                                               ; preds = %78, %75
  %88 = load ptr, ptr %20, align 8
  %89 = icmp ne ptr %88, null
  br i1 %89, label %90, label %100

90:                                               ; preds = %87
  %91 = load i32, ptr %22, align 4
  %92 = sub nsw i32 0, %91
  %93 = sitofp i32 %92 to float
  %94 = load float, ptr %14, align 4
  %95 = load float, ptr %16, align 4
  %96 = call float @llvm.fmuladd.f32(float %93, float %94, float %95)
  %97 = call noundef float @_ZSt4ceilf(float noundef %96)
  %98 = fptosi float %97 to i32
  %99 = load ptr, ptr %20, align 8
  store i32 %98, ptr %99, align 4
  br label %100

100:                                              ; preds = %90, %87
  br label %101

101:                                              ; preds = %100, %49
  ret void
}

; Function Attrs: mustprogress nounwind uwtable
define dso_local void @_Z9imguifreePvS_(ptr noundef %0, ptr noundef %1) #1 {
  %3 = alloca ptr, align 8
  %4 = alloca ptr, align 8
  store ptr %0, ptr %3, align 8
  store ptr %1, ptr %4, align 8
  %5 = load ptr, ptr %3, align 8
  call void @free(ptr noundef %5) #10
  ret void
}

; Function Attrs: mustprogress uwtable
define dso_local ptr @stbtt_GetGlyphBitmapSubpixel(ptr noundef %0, float noundef %1, float noundef %2, float noundef %3, float noundef %4, i32 noundef %5, ptr noundef %6, ptr noundef %7, ptr noundef %8, ptr noundef %9) #0 {
  %11 = alloca ptr, align 8
  %12 = alloca ptr, align 8
  %13 = alloca float, align 4
  %14 = alloca float, align 4
  %15 = alloca float, align 4
  %16 = alloca float, align 4
  %17 = alloca i32, align 4
  %18 = alloca ptr, align 8
  %19 = alloca ptr, align 8
  %20 = alloca ptr, align 8
  %21 = alloca ptr, align 8
  %22 = alloca i32, align 4
  %23 = alloca i32, align 4
  %24 = alloca i32, align 4
  %25 = alloca i32, align 4
  %26 = alloca %struct.stbtt__bitmap, align 8
  %27 = alloca ptr, align 8
  %28 = alloca i32, align 4
  store ptr %0, ptr %12, align 8
  store float %1, ptr %13, align 4
  store float %2, ptr %14, align 4
  store float %3, ptr %15, align 4
  store float %4, ptr %16, align 4
  store i32 %5, ptr %17, align 4
  store ptr %6, ptr %18, align 8
  store ptr %7, ptr %19, align 8
  store ptr %8, ptr %20, align 8
  store ptr %9, ptr %21, align 8
  %29 = load ptr, ptr %12, align 8
  %30 = load i32, ptr %17, align 4
  %31 = call i32 @stbtt_GetGlyphShape(ptr noundef %29, i32 noundef %30, ptr noundef %27)
  store i32 %31, ptr %28, align 4
  %32 = load float, ptr %13, align 4
  %33 = fcmp oeq float %32, 0.000000e+00
  br i1 %33, label %34, label %36

34:                                               ; preds = %10
  %35 = load float, ptr %14, align 4
  store float %35, ptr %13, align 4
  br label %36

36:                                               ; preds = %34, %10
  %37 = load float, ptr %14, align 4
  %38 = fcmp oeq float %37, 0.000000e+00
  br i1 %38, label %39, label %49

39:                                               ; preds = %36
  %40 = load float, ptr %13, align 4
  %41 = fcmp oeq float %40, 0.000000e+00
  br i1 %41, label %42, label %47

42:                                               ; preds = %39
  %43 = load ptr, ptr %27, align 8
  %44 = load ptr, ptr %12, align 8
  %45 = getelementptr inbounds %struct.stbtt_fontinfo, ptr %44, i32 0, i32 0
  %46 = load ptr, ptr %45, align 8
  call void @_Z9imguifreePvS_(ptr noundef %43, ptr noundef %46)
  store ptr null, ptr %11, align 8
  br label %136

47:                                               ; preds = %39
  %48 = load float, ptr %13, align 4
  store float %48, ptr %14, align 4
  br label %49

49:                                               ; preds = %47, %36
  %50 = load ptr, ptr %12, align 8
  %51 = load i32, ptr %17, align 4
  %52 = load float, ptr %13, align 4
  %53 = load float, ptr %14, align 4
  %54 = load float, ptr %15, align 4
  %55 = load float, ptr %16, align 4
  call void @stbtt_GetGlyphBitmapBoxSubpixel(ptr noundef %50, i32 noundef %51, float noundef %52, float noundef %53, float noundef %54, float noundef %55, ptr noundef %22, ptr noundef %23, ptr noundef %24, ptr noundef %25)
  %56 = load i32, ptr %24, align 4
  %57 = load i32, ptr %22, align 4
  %58 = sub nsw i32 %56, %57
  %59 = getelementptr inbounds %struct.stbtt__bitmap, ptr %26, i32 0, i32 0
  store i32 %58, ptr %59, align 8
  %60 = load i32, ptr %25, align 4
  %61 = load i32, ptr %23, align 4
  %62 = sub nsw i32 %60, %61
  %63 = getelementptr inbounds %struct.stbtt__bitmap, ptr %26, i32 0, i32 1
  store i32 %62, ptr %63, align 4
  %64 = getelementptr inbounds %struct.stbtt__bitmap, ptr %26, i32 0, i32 3
  store ptr null, ptr %64, align 8
  %65 = load ptr, ptr %18, align 8
  %66 = icmp ne ptr %65, null
  br i1 %66, label %67, label %71

67:                                               ; preds = %49
  %68 = getelementptr inbounds %struct.stbtt__bitmap, ptr %26, i32 0, i32 0
  %69 = load i32, ptr %68, align 8
  %70 = load ptr, ptr %18, align 8
  store i32 %69, ptr %70, align 4
  br label %71

71:                                               ; preds = %67, %49
  %72 = load ptr, ptr %19, align 8
  %73 = icmp ne ptr %72, null
  br i1 %73, label %74, label %78

74:                                               ; preds = %71
  %75 = getelementptr inbounds %struct.stbtt__bitmap, ptr %26, i32 0, i32 1
  %76 = load i32, ptr %75, align 4
  %77 = load ptr, ptr %19, align 8
  store i32 %76, ptr %77, align 4
  br label %78

78:                                               ; preds = %74, %71
  %79 = load ptr, ptr %20, align 8
  %80 = icmp ne ptr %79, null
  br i1 %80, label %81, label %84

81:                                               ; preds = %78
  %82 = load i32, ptr %22, align 4
  %83 = load ptr, ptr %20, align 8
  store i32 %82, ptr %83, align 4
  br label %84

84:                                               ; preds = %81, %78
  %85 = load ptr, ptr %21, align 8
  %86 = icmp ne ptr %85, null
  br i1 %86, label %87, label %90

87:                                               ; preds = %84
  %88 = load i32, ptr %23, align 4
  %89 = load ptr, ptr %21, align 8
  store i32 %88, ptr %89, align 4
  br label %90

90:                                               ; preds = %87, %84
  %91 = getelementptr inbounds %struct.stbtt__bitmap, ptr %26, i32 0, i32 0
  %92 = load i32, ptr %91, align 8
  %93 = icmp ne i32 %92, 0
  br i1 %93, label %94, label %129

94:                                               ; preds = %90
  %95 = getelementptr inbounds %struct.stbtt__bitmap, ptr %26, i32 0, i32 1
  %96 = load i32, ptr %95, align 4
  %97 = icmp ne i32 %96, 0
  br i1 %97, label %98, label %129

98:                                               ; preds = %94
  %99 = getelementptr inbounds %struct.stbtt__bitmap, ptr %26, i32 0, i32 0
  %100 = load i32, ptr %99, align 8
  %101 = getelementptr inbounds %struct.stbtt__bitmap, ptr %26, i32 0, i32 1
  %102 = load i32, ptr %101, align 4
  %103 = mul nsw i32 %100, %102
  %104 = sext i32 %103 to i64
  %105 = load ptr, ptr %12, align 8
  %106 = getelementptr inbounds %struct.stbtt_fontinfo, ptr %105, i32 0, i32 0
  %107 = load ptr, ptr %106, align 8
  %108 = call noundef ptr @_Z11imguimallocmPv(i64 noundef %104, ptr noundef %107)
  %109 = getelementptr inbounds %struct.stbtt__bitmap, ptr %26, i32 0, i32 3
  store ptr %108, ptr %109, align 8
  %110 = getelementptr inbounds %struct.stbtt__bitmap, ptr %26, i32 0, i32 3
  %111 = load ptr, ptr %110, align 8
  %112 = icmp ne ptr %111, null
  br i1 %112, label %113, label %128

113:                                              ; preds = %98
  %114 = getelementptr inbounds %struct.stbtt__bitmap, ptr %26, i32 0, i32 0
  %115 = load i32, ptr %114, align 8
  %116 = getelementptr inbounds %struct.stbtt__bitmap, ptr %26, i32 0, i32 2
  store i32 %115, ptr %116, align 8
  %117 = load ptr, ptr %27, align 8
  %118 = load i32, ptr %28, align 4
  %119 = load float, ptr %13, align 4
  %120 = load float, ptr %14, align 4
  %121 = load float, ptr %15, align 4
  %122 = load float, ptr %16, align 4
  %123 = load i32, ptr %22, align 4
  %124 = load i32, ptr %23, align 4
  %125 = load ptr, ptr %12, align 8
  %126 = getelementptr inbounds %struct.stbtt_fontinfo, ptr %125, i32 0, i32 0
  %127 = load ptr, ptr %126, align 8
  call void @stbtt_Rasterize(ptr noundef %26, float noundef 0x3FD6666660000000, ptr noundef %117, i32 noundef %118, float noundef %119, float noundef %120, float noundef %121, float noundef %122, i32 noundef %123, i32 noundef %124, i32 noundef 1, ptr noundef %127)
  br label %128

128:                                              ; preds = %113, %98
  br label %129

129:                                              ; preds = %128, %94, %90
  %130 = load ptr, ptr %27, align 8
  %131 = load ptr, ptr %12, align 8
  %132 = getelementptr inbounds %struct.stbtt_fontinfo, ptr %131, i32 0, i32 0
  %133 = load ptr, ptr %132, align 8
  call void @_Z9imguifreePvS_(ptr noundef %130, ptr noundef %133)
  %134 = getelementptr inbounds %struct.stbtt__bitmap, ptr %26, i32 0, i32 3
  %135 = load ptr, ptr %134, align 8
  store ptr %135, ptr %11, align 8
  br label %136

136:                                              ; preds = %129, %42
  %137 = load ptr, ptr %11, align 8
  ret ptr %137
}