; Function Attrs: mustprogress nounwind uwtable
define dso_local noundef ptr @stbtt_GetGlyphBitmapSubpixel(ptr noundef readonly captures(none) %0, float noundef %1, float noundef %2, float noundef %3, float noundef %4, i32 noundef %5, ptr noundef writeonly %6, ptr noundef writeonly %7, ptr noundef writeonly %8, ptr noundef writeonly %9) local_unnamed_addr #3 {
  %11 = alloca i32, align 4
  %12 = alloca i32, align 4
  %13 = alloca i32, align 4
  %14 = alloca i32, align 4
  %15 = alloca %struct.stbtt__bitmap, align 8
  %16 = alloca ptr, align 8
  %17 = call i32 @stbtt_GetGlyphShape(ptr noundef %0, i32 noundef %5, ptr noundef nonnull %16)
  %18 = fcmp une float %1, 0.000000e+00
  %.032 = select i1 %18, float %1, float %2
  %19 = fcmp une float %2, 0.000000e+00
  %brmerge = or i1 %18, %19
  %.mux = select i1 %19, float %2, float %.032
  br i1 %brmerge, label %22, label %20

20:                                               ; preds = %10
  %21 = load ptr, ptr %16, align 8
  tail call void @free(ptr noundef %21) #28
  br label %70

22:                                               ; preds = %10
  call void @llvm.lifetime.start.p0(i64 4, ptr nonnull %11)
  call void @llvm.lifetime.start.p0(i64 4, ptr nonnull %12)
  call void @llvm.lifetime.start.p0(i64 4, ptr nonnull %13)
  call void @llvm.lifetime.start.p0(i64 4, ptr nonnull %14)
  store i32 0, ptr %11, align 4
  store i32 0, ptr %12, align 4
  %23 = call i32 @stbtt_GetGlyphBox(ptr noundef readonly %0, i32 noundef %5, ptr noundef nonnull %11, ptr noundef nonnull %12, ptr noundef nonnull %13, ptr noundef nonnull %14)
  %.not.i = icmp eq i32 %23, 0
  br i1 %.not.i, label %stbtt_GetGlyphBitmapBoxSubpixel.exit, label %24

24:                                               ; preds = %22
  %25 = load i32, ptr %11, align 4
  %26 = sitofp i32 %25 to float
  %27 = call float @llvm.fmuladd.f32(float %26, float %.032, float %3)
  %28 = call noundef float @llvm.floor.f32(float %27)
  %29 = fptosi float %28 to i32
  %30 = load i32, ptr %14, align 4
  %31 = sub nsw i32 0, %30
  %32 = sitofp i32 %31 to float
  %33 = call float @llvm.fmuladd.f32(float %32, float %.mux, float %4)
  %34 = call noundef float @llvm.floor.f32(float %33)
  %35 = fptosi float %34 to i32
  %36 = load i32, ptr %13, align 4
  %37 = sitofp i32 %36 to float
  %38 = call float @llvm.fmuladd.f32(float %37, float %.032, float %3)
  %39 = call noundef float @llvm.ceil.f32(float %38)
  %40 = fptosi float %39 to i32
  %41 = load i32, ptr %12, align 4
  %42 = sub nsw i32 0, %41
  %43 = sitofp i32 %42 to float
  %44 = call float @llvm.fmuladd.f32(float %43, float %.mux, float %4)
  %45 = call noundef float @llvm.ceil.f32(float %44)
  %46 = fptosi float %45 to i32
  br label %stbtt_GetGlyphBitmapBoxSubpixel.exit

stbtt_GetGlyphBitmapBoxSubpixel.exit:             ; preds = %22, %24
  %.055 = phi i32 [ %35, %24 ], [ 0, %22 ]
  %.054 = phi i32 [ %40, %24 ], [ 0, %22 ]
  %.053 = phi i32 [ %29, %24 ], [ 0, %22 ]
  %.sink.i = phi i32 [ %46, %24 ], [ 0, %22 ]
  call void @llvm.lifetime.end.p0(i64 4, ptr nonnull %11)
  call void @llvm.lifetime.end.p0(i64 4, ptr nonnull %12)
  call void @llvm.lifetime.end.p0(i64 4, ptr nonnull %13)
  call void @llvm.lifetime.end.p0(i64 4, ptr nonnull %14)
  %47 = sub nsw i32 %.054, %.053
  store i32 %47, ptr %15, align 8
  %48 = sub nsw i32 %.sink.i, %.055
  %49 = getelementptr inbounds nuw i8, ptr %15, i64 4
  store i32 %48, ptr %49, align 4
  %50 = getelementptr inbounds nuw i8, ptr %15, i64 16
  %.not = icmp eq ptr %6, null
  br i1 %.not, label %52, label %51

51:                                               ; preds = %stbtt_GetGlyphBitmapBoxSubpixel.exit
  store i32 %47, ptr %6, align 4
  br label %52

52:                                               ; preds = %51, %stbtt_GetGlyphBitmapBoxSubpixel.exit
  %.not42 = icmp eq ptr %7, null
  br i1 %.not42, label %54, label %53

53:                                               ; preds = %52
  store i32 %48, ptr %7, align 4
  br label %54

54:                                               ; preds = %53, %52
  %.not43 = icmp eq ptr %8, null
  br i1 %.not43, label %56, label %55

55:                                               ; preds = %54
  store i32 %.053, ptr %8, align 4
  br label %56

56:                                               ; preds = %55, %54
  %.not44 = icmp eq ptr %9, null
  br i1 %.not44, label %58, label %57

57:                                               ; preds = %56
  store i32 %.055, ptr %9, align 4
  br label %58

58:                                               ; preds = %57, %56
  %59 = icmp ne i32 %.054, %.053
  %60 = icmp ne i32 %.sink.i, %.055
  %or.cond = select i1 %59, i1 %60, i1 false
  br i1 %or.cond, label %61, label %._crit_edge

._crit_edge:                                      ; preds = %58
  %.pre = load ptr, ptr %16, align 8
  br label %67

61:                                               ; preds = %58
  %62 = mul nsw i32 %48, %47
  %63 = sext i32 %62 to i64
  %64 = call noalias noundef ptr @malloc(i64 noundef %63) #27
  store ptr %64, ptr %50, align 8
  %.not45 = icmp eq ptr %64, null
  %.pre58 = load ptr, ptr %16, align 8
  br i1 %.not45, label %67, label %65

65:                                               ; preds = %61
  %66 = getelementptr inbounds nuw i8, ptr %15, i64 8
  store i32 %47, ptr %66, align 8
  call void @stbtt_Rasterize(ptr noundef nonnull %15, float noundef 0x3FD6666660000000, ptr noundef %.pre58, i32 noundef %17, float noundef %.032, float noundef %.mux, float noundef %3, float noundef %4, i32 noundef %.053, i32 noundef %.055, i32 noundef 1, ptr poison)
  br label %67

67:                                               ; preds = %._crit_edge, %61, %65
  %68 = phi ptr [ %.pre58, %61 ], [ %.pre58, %65 ], [ %.pre, %._crit_edge ]
  %69 = phi ptr [ null, %61 ], [ %64, %65 ], [ null, %._crit_edge ]
  call void @free(ptr noundef %68) #28
  br label %70

70:                                               ; preds = %67, %20
  %.0 = phi ptr [ null, %20 ], [ %69, %67 ]
  ret ptr %.0
}